target datalayout = "e-m:e-p270:32:32-p271:32:32-p272:64:64-i64:64-i128:128-f80:128-n8:16:32:64-S128"
target triple = "x86_64-pc-linux-gnu"

%struct.cbs_st = type { ptr, i64 }

@.str = private unnamed_addr constant [123 x i8] c"generated/home/dtcxzyw/WorkSpace/Projects/compilers/llvm-opt-benchmark/bench/libquic/libquic/boringssl/crypto/x509/pkcs7.c\00", align 1

; Function Attrs: nounwind uwtable
define hidden i32 @PKCS7_get_certificates(ptr noundef %0, ptr noundef %1) #0 {
  %3 = alloca i32, align 4
  %4 = alloca ptr, align 8
  %5 = alloca ptr, align 8
  %6 = alloca %struct.cbs_st, align 8
  %7 = alloca %struct.cbs_st, align 8
  %8 = alloca ptr, align 8
  %9 = alloca i32, align 4
  %10 = alloca i64, align 8
  %11 = alloca i32, align 4
  %12 = alloca %struct.cbs_st, align 8
  %13 = alloca ptr, align 8
  %14 = alloca ptr, align 8
  %15 = alloca ptr, align 8
  store ptr %0, ptr %4, align 8, !tbaa !6
  store ptr %1, ptr %5, align 8, !tbaa !11
  call void @llvm.lifetime.start.p0(i64 16, ptr %6) #4
  call void @llvm.lifetime.start.p0(i64 16, ptr %7) #4
  call void @llvm.lifetime.start.p0(i64 8, ptr %8) #4
  store ptr null, ptr %8, align 8, !tbaa !13
  call void @llvm.lifetime.start.p0(i64 4, ptr %9) #4
  store i32 0, ptr %9, align 4, !tbaa !15
  call void @llvm.lifetime.start.p0(i64 8, ptr %10) #4
  %16 = load ptr, ptr %4, align 8, !tbaa !6
  %17 = call i64 @sk_num(ptr noundef %16)
  store i64 %17, ptr %10, align 8, !tbaa !17
  %18 = load ptr, ptr %5, align 8, !tbaa !11
  %19 = call i32 @pkcs7_parse_header(ptr noundef %8, ptr noundef %6, ptr noundef %18)
  %20 = icmp ne i32 %19, 0
  br i1 %20, label %22, label %21

21:                                               ; preds = %2
  store i32 0, ptr %3, align 4
  store i32 1, ptr %11, align 4
  br label %78

22:                                               ; preds = %2
  %23 = call i32 @CBS_get_asn1(ptr noundef %6, ptr noundef %7, i32 noundef 160)
  %24 = icmp ne i32 %23, 0
  br i1 %24, label %26, label %25

25:                                               ; preds = %22
  call void @ERR_put_error(i32 noundef 11, i32 noundef 0, i32 noundef 121, ptr noundef @.str, i32 noundef 105)
  br label %57

26:                                               ; preds = %22
  br label %27

27:                                               ; preds = %55, %26
  %28 = call i64 @CBS_len(ptr noundef %7)
  %29 = icmp ugt i64 %28, 0
  br i1 %29, label %30, label %56

30:                                               ; preds = %27
  call void @llvm.lifetime.start.p0(i64 16, ptr %12) #4
  call void @llvm.lifetime.start.p0(i64 8, ptr %13) #4
  call void @llvm.lifetime.start.p0(i64 8, ptr %14) #4
  %31 = call i32 @CBS_get_asn1_element(ptr noundef %7, ptr noundef %12, i32 noundef 48)
  %32 = icmp ne i32 %31, 0
  br i1 %32, label %34, label %33

33:                                               ; preds = %30
  store i32 2, ptr %11, align 4
  br label %53

34:                                               ; preds = %30
  %35 = call i64 @CBS_len(ptr noundef %12)
  %36 = icmp ugt i64 %35, 9223372036854775807
  br i1 %36, label %37, label %38

37:                                               ; preds = %34
  store i32 2, ptr %11, align 4
  br label %53

38:                                               ; preds = %34
  %39 = call ptr @CBS_data(ptr noundef %12)
  store ptr %39, ptr %14, align 8, !tbaa !13
  %40 = call i64 @CBS_len(ptr noundef %12)
  %41 = call ptr @d2i_X509(ptr noundef null, ptr noundef %14, i64 noundef %40)
  store ptr %41, ptr %13, align 8, !tbaa !19
  %42 = load ptr, ptr %13, align 8, !tbaa !19
  %43 = icmp ne ptr %42, null
  br i1 %43, label %45, label %44

44:                                               ; preds = %38
  store i32 2, ptr %11, align 4
  br label %53

45:                                               ; preds = %38
  %46 = load ptr, ptr %4, align 8, !tbaa !6
  %47 = load ptr, ptr %13, align 8, !tbaa !19
  %48 = call i64 @sk_push(ptr noundef %46, ptr noundef %47)
  %49 = icmp eq i64 %48, 0
  br i1 %49, label %50, label %52

50:                                               ; preds = %45
  %51 = load ptr, ptr %13, align 8, !tbaa !19
  call void @X509_free(ptr noundef %51)
  store i32 2, ptr %11, align 4
  br label %53

52:                                               ; preds = %45
  store i32 0, ptr %11, align 4
  br label %53

53:                                               ; preds = %50, %44, %37, %33, %52
  call void @llvm.lifetime.end.p0(i64 8, ptr %14) #4
  call void @llvm.lifetime.end.p0(i64 8, ptr %13) #4
  call void @llvm.lifetime.end.p0(i64 16, ptr %12) #4
  %54 = load i32, ptr %11, align 4
  switch i32 %54, label %78 [
    i32 0, label %55
    i32 2, label %57
  ]

55:                                               ; preds = %53
  br label %27, !llvm.loop !21

56:                                               ; preds = %27
  store i32 1, ptr %9, align 4, !tbaa !15
  br label %57

57:                                               ; preds = %56, %53, %25
  %58 = load ptr, ptr %8, align 8, !tbaa !13
  %59 = icmp ne ptr %58, null
  br i1 %59, label %60, label %62

60:                                               ; preds = %57
  %61 = load ptr, ptr %8, align 8, !tbaa !13
  call void @free(ptr noundef %61) #4
  br label %62

62:                                               ; preds = %60, %57
  %63 = load i32, ptr %9, align 4, !tbaa !15
  %64 = icmp ne i32 %63, 0
  br i1 %64, label %76, label %65

65:                                               ; preds = %62
  br label %66

66:                                               ; preds = %71, %65
  %67 = load ptr, ptr %4, align 8, !tbaa !6
  %68 = call i64 @sk_num(ptr noundef %67)
  %69 = load i64, ptr %10, align 8, !tbaa !17
  %70 = icmp ne i64 %68, %69
  br i1 %70, label %71, label %75

71:                                               ; preds = %66
  call void @llvm.lifetime.start.p0(i64 8, ptr %15) #4
  %72 = load ptr, ptr %4, align 8, !tbaa !6
  %73 = call ptr @sk_pop(ptr noundef %72)
  store ptr %73, ptr %15, align 8, !tbaa !19
  %74 = load ptr, ptr %15, align 8, !tbaa !19
  call void @X509_free(ptr noundef %74)
  call void @llvm.lifetime.end.p0(i64 8, ptr %15) #4
  br label %66, !llvm.loop !23

75:                                               ; preds = %66
  br label %76

76:                                               ; preds = %75, %62
  %77 = load i32, ptr %9, align 4, !tbaa !15
  store i32 %77, ptr %3, align 4
  store i32 1, ptr %11, align 4
  br label %78

78:                                               ; preds = %76, %53, %21
  call void @llvm.lifetime.end.p0(i64 8, ptr %10) #4
  call void @llvm.lifetime.end.p0(i64 4, ptr %9) #4
  call void @llvm.lifetime.end.p0(i64 8, ptr %8) #4
  call void @llvm.lifetime.end.p0(i64 16, ptr %7) #4
  call void @llvm.lifetime.end.p0(i64 16, ptr %6) #4
  %79 = load i32, ptr %3, align 4
  ret i32 %79
}