; Function Attrs: nounwind uwtable
define hidden range(i32 0, 2) i32 @PKCS7_get_certificates(ptr noundef %0, ptr noundef %1) local_unnamed_addr #0 {
  %3 = alloca %struct.cbs_st, align 8
  %4 = alloca %struct.cbs_st, align 8
  %5 = alloca ptr, align 8
  %6 = alloca %struct.cbs_st, align 8
  %7 = alloca ptr, align 8
  call void @llvm.lifetime.start.p0(i64 16, ptr nonnull %3) #4
  call void @llvm.lifetime.start.p0(i64 16, ptr nonnull %4) #4
  call void @llvm.lifetime.start.p0(i64 8, ptr nonnull %5) #4
  store ptr null, ptr %5, align 8, !tbaa !6
  %8 = tail call i64 @sk_num(ptr noundef %0) #4
  %9 = call fastcc i32 @pkcs7_parse_header(ptr noundef %5, ptr noundef %3, ptr noundef %1)
  %.not = icmp eq i32 %9, 0
  br i1 %.not, label %.loopexit, label %10

10:                                               ; preds = %2
  %11 = call i32 @CBS_get_asn1(ptr noundef nonnull %3, ptr noundef nonnull %4, i32 noundef 160) #4
  %.not17 = icmp eq i32 %11, 0
  br i1 %.not17, label %13, label %.preheader27

.preheader27:                                     ; preds = %10
  %12 = call i64 @CBS_len(ptr noundef nonnull %4) #4
  %.not1829 = icmp eq i64 %12, 0
  br i1 %.not1829, label %.loopexit28, label %.lr.ph

13:                                               ; preds = %10
  call void @ERR_put_error(i32 noundef 11, i32 noundef 0, i32 noundef 121, ptr noundef nonnull @.str, i32 noundef 105) #4
  br label %.loopexit28

.lr.ph:                                           ; preds = %.preheader27, %26
  call void @llvm.lifetime.start.p0(i64 16, ptr nonnull %6) #4
  call void @llvm.lifetime.start.p0(i64 8, ptr nonnull %7) #4
  %14 = call i32 @CBS_get_asn1_element(ptr noundef nonnull %4, ptr noundef nonnull %6, i32 noundef 48) #4
  %.not19 = icmp eq i32 %14, 0
  br i1 %.not19, label %.thread, label %15

15:                                               ; preds = %.lr.ph
  %16 = call i64 @CBS_len(ptr noundef nonnull %6) #4
  %17 = icmp slt i64 %16, 0
  br i1 %17, label %.thread, label %18

18:                                               ; preds = %15
  %19 = call ptr @CBS_data(ptr noundef nonnull %6) #4
  store ptr %19, ptr %7, align 8, !tbaa !6
  %20 = call i64 @CBS_len(ptr noundef nonnull %6) #4
  %21 = call ptr @d2i_X509(ptr noundef null, ptr noundef nonnull %7, i64 noundef %20) #4
  %.not20 = icmp eq ptr %21, null
  br i1 %.not20, label %.thread, label %22

22:                                               ; preds = %18
  %23 = call i64 @sk_push(ptr noundef %0, ptr noundef nonnull %21) #4
  %24 = icmp eq i64 %23, 0
  br i1 %24, label %25, label %26

25:                                               ; preds = %22
  call void @X509_free(ptr noundef nonnull %21) #4
  br label %.thread

.thread:                                          ; preds = %.lr.ph, %15, %18, %25
  call void @llvm.lifetime.end.p0(i64 8, ptr nonnull %7) #4
  call void @llvm.lifetime.end.p0(i64 16, ptr nonnull %6) #4
  br label %.loopexit28

26:                                               ; preds = %22
  call void @llvm.lifetime.end.p0(i64 8, ptr nonnull %7) #4
  call void @llvm.lifetime.end.p0(i64 16, ptr nonnull %6) #4
  %27 = call i64 @CBS_len(ptr noundef nonnull %4) #4
  %.not18 = icmp eq i64 %27, 0
  br i1 %.not18, label %.loopexit28, label %.lr.ph

.loopexit28:                                      ; preds = %26, %.preheader27, %.thread, %13
  %.not22 = phi i1 [ true, %13 ], [ true, %.thread ], [ false, %.preheader27 ], [ false, %26 ]
  %.013 = phi i32 [ 0, %13 ], [ 0, %.thread ], [ 1, %.preheader27 ], [ 1, %26 ]
  %28 = load ptr, ptr %5, align 8, !tbaa !6
  %.not21 = icmp eq ptr %28, null
  br i1 %.not21, label %30, label %29

29:                                               ; preds = %.loopexit28
  call void @free(ptr noundef nonnull %28) #4
  br label %30

30:                                               ; preds = %29, %.loopexit28
  br i1 %.not22, label %.preheader, label %.loopexit

.preheader:                                       ; preds = %30
  %31 = call i64 @sk_num(ptr noundef %0) #4
  %.not2330 = icmp eq i64 %31, %8
  br i1 %.not2330, label %.loopexit, label %.lr.ph31

.lr.ph31:                                         ; preds = %.preheader, %.lr.ph31
  %32 = call ptr @sk_pop(ptr noundef %0) #4
  call void @X509_free(ptr noundef %32) #4
  %33 = call i64 @sk_num(ptr noundef %0) #4
  %.not23 = icmp eq i64 %33, %8
  br i1 %.not23, label %.loopexit, label %.lr.ph31, !llvm.loop !11

.loopexit:                                        ; preds = %.lr.ph31, %.preheader, %30, %2
  %.0 = phi i32 [ 0, %2 ], [ %.013, %30 ], [ %.013, %.preheader ], [ %.013, %.lr.ph31 ]
  call void @llvm.lifetime.end.p0(i64 8, ptr nonnull %5) #4
  call void @llvm.lifetime.end.p0(i64 16, ptr nonnull %4) #4
  call void @llvm.lifetime.end.p0(i64 16, ptr nonnull %3) #4
  ret i32 %.0
}